; Function Attrs: nofree nounwind memory(read) uwtable
define range(i32 -1, 2) i32 @Cba_StrCmp(ptr noundef readonly captures(none) %0, ptr noundef readonly captures(none) %1) #8 {
  %3 = load ptr, ptr %0, align 8
  %4 = load ptr, ptr %1, align 8
  %5 = load i8, ptr %3, align 1
  %.not43 = icmp eq i8 %5, 0
  br i1 %.not43, label %.critedge.thread, label %.lr.ph

.lr.ph:                                           ; preds = %2, %50
  %indvars.iv = phi i64 [ %indvars.iv.next, %50 ], [ 0, %2 ]
  %6 = phi i8 [ %53, %50 ], [ %5, %2 ]
  %.044 = phi i32 [ %51, %50 ], [ 0, %2 ]
  %7 = getelementptr inbounds nuw i8, ptr %4, i64 %indvars.iv
  %8 = load i8, ptr %7, align 1
  %.not20 = icmp eq i8 %8, 0
  br i1 %.not20, label %.critedge.split.loop.exit, label %9

9:                                                ; preds = %.lr.ph
  %.not21 = icmp eq i8 %6, %8
  br i1 %.not21, label %50, label %10

10:                                               ; preds = %9
  %11 = getelementptr inbounds nuw i8, ptr %3, i64 %indvars.iv
  %12 = and i64 %indvars.iv, 4294967295
  %13 = getelementptr inbounds nuw i8, ptr %3, i64 %12
  %14 = load i8, ptr %13, align 1
  %15 = add i8 %14, -58
  %16 = icmp ult i8 %15, -10
  br i1 %16, label %17, label %22

17:                                               ; preds = %10
  %18 = getelementptr inbounds nuw i8, ptr %4, i64 %12
  %19 = load i8, ptr %18, align 1
  %20 = add i8 %19, -58
  %21 = icmp ult i8 %20, -10
  br i1 %21, label %._crit_edge.i, label %22

22:                                               ; preds = %17, %10
  %.not35 = icmp eq i64 %indvars.iv, 0
  br i1 %.not35, label %28, label %23

23:                                               ; preds = %22
  %24 = getelementptr i8, ptr %11, i64 -1
  %25 = load i8, ptr %24, align 1
  %26 = add i8 %25, -58
  %27 = icmp ult i8 %26, -10
  br i1 %27, label %28, label %._crit_edge47.i.preheader

28:                                               ; preds = %23, %22
  %.phi.trans.insert.i = getelementptr inbounds nuw i8, ptr %4, i64 %12
  %.pre.i = load i8, ptr %.phi.trans.insert.i, align 1
  %29 = add i8 %.pre.i, -58
  %30 = icmp ult i8 %29, -10
  %or.cond.i = select i1 %16, i1 true, i1 %30
  br i1 %or.cond.i, label %._crit_edge.i, label %._crit_edge47.i.preheader

._crit_edge47.i.preheader:                        ; preds = %28, %23
  br label %._crit_edge47.i

._crit_edge47.i:                                  ; preds = %._crit_edge47.i.preheader, %32
  %indvars.iv.i = phi i64 [ %33, %32 ], [ %indvars.iv, %._crit_edge47.i.preheader ]
  %31 = icmp sgt i64 %indvars.iv.i, 0
  br i1 %31, label %32, label %38

32:                                               ; preds = %._crit_edge47.i
  %33 = add nsw i64 %indvars.iv.i, -1
  %34 = getelementptr inbounds nuw i8, ptr %3, i64 %33
  %35 = load i8, ptr %34, align 1
  %36 = add i8 %35, -58
  %37 = icmp ult i8 %36, -10
  br i1 %37, label %38, label %._crit_edge47.i, !llvm.loop !26

38:                                               ; preds = %32, %._crit_edge47.i
  %.033.in.lcssa.i = phi i64 [ %indvars.iv.i, %32 ], [ 0, %._crit_edge47.i ]
  %39 = getelementptr inbounds nuw i8, ptr %3, i64 %.033.in.lcssa.i
  %40 = tail call i32 @atoi(ptr noundef nonnull readonly %39) #27
  %41 = getelementptr inbounds nuw i8, ptr %4, i64 %.033.in.lcssa.i
  %42 = tail call i32 @atoi(ptr noundef readonly %41) #27
  %43 = icmp slt i32 %40, %42
  br i1 %43, label %Cba_StrCmpInt.exit, label %44

44:                                               ; preds = %38
  %45 = icmp sgt i32 %40, %42
  %..i = zext i1 %45 to i32
  br label %Cba_StrCmpInt.exit

._crit_edge.i:                                    ; preds = %28, %17
  %46 = phi i8 [ %19, %17 ], [ %.pre.i, %28 ]
  %47 = icmp slt i8 %14, %46
  br i1 %47, label %Cba_StrCmpInt.exit, label %48

48:                                               ; preds = %._crit_edge.i
  %49 = icmp sgt i8 %14, %46
  %.44.i = zext i1 %49 to i32
  br label %Cba_StrCmpInt.exit

50:                                               ; preds = %9
  %indvars.iv.next = add nuw nsw i64 %indvars.iv, 1
  %51 = add nuw nsw i32 %.044, 1
  %52 = getelementptr inbounds nuw i8, ptr %3, i64 %indvars.iv.next
  %53 = load i8, ptr %52, align 1
  %.not = icmp eq i8 %53, 0
  br i1 %.not, label %.critedge, label %.lr.ph, !llvm.loop !27

.critedge.split.loop.exit:                        ; preds = %.lr.ph
  %54 = trunc nuw nsw i64 %indvars.iv to i32
  br label %.critedge

.critedge:                                        ; preds = %50, %.critedge.split.loop.exit
  %.lcssa42.ph = phi i64 [ %indvars.iv, %.critedge.split.loop.exit ], [ %indvars.iv.next, %50 ]
  %.0.lcssa.ph = phi i32 [ %54, %.critedge.split.loop.exit ], [ %51, %50 ]
  %.phi.trans.insert = zext i32 %.0.lcssa.ph to i64
  %.phi.trans.insert53 = getelementptr inbounds nuw i8, ptr %3, i64 %.phi.trans.insert
  %.pre = load i8, ptr %.phi.trans.insert53, align 1
  %55 = getelementptr inbounds nuw i8, ptr %3, i64 %.lcssa42.ph
  %56 = zext nneg i32 %.0.lcssa.ph to i64
  %57 = add i8 %.pre, -58
  %58 = icmp ult i8 %57, -10
  br i1 %58, label %.critedge.thread, label %66

.critedge.thread:                                 ; preds = %2, %.critedge
  %59 = phi i64 [ %56, %.critedge ], [ 0, %2 ]
  %60 = phi ptr [ %55, %.critedge ], [ %3, %2 ]
  %.0.lcssa59 = phi i32 [ %.0.lcssa.ph, %.critedge ], [ 0, %2 ]
  %.lcssa4257 = phi i64 [ %.lcssa42.ph, %.critedge ], [ 0, %2 ]
  %61 = phi i8 [ %.pre, %.critedge ], [ 0, %2 ]
  %62 = getelementptr inbounds nuw i8, ptr %4, i64 %59
  %63 = load i8, ptr %62, align 1
  %64 = add i8 %63, -58
  %65 = icmp ult i8 %64, -10
  br i1 %65, label %._crit_edge.i32, label %66

66:                                               ; preds = %.critedge.thread, %.critedge
  %67 = phi i1 [ true, %.critedge.thread ], [ false, %.critedge ]
  %68 = phi i64 [ %59, %.critedge.thread ], [ %56, %.critedge ]
  %69 = phi ptr [ %60, %.critedge.thread ], [ %55, %.critedge ]
  %.0.lcssa58 = phi i32 [ %.0.lcssa59, %.critedge.thread ], [ %.0.lcssa.ph, %.critedge ]
  %.lcssa4256 = phi i64 [ %.lcssa4257, %.critedge.thread ], [ %.lcssa42.ph, %.critedge ]
  %70 = phi i8 [ %61, %.critedge.thread ], [ %.pre, %.critedge ]
  %.not36 = icmp eq i32 %.0.lcssa58, 0
  br i1 %.not36, label %76, label %71

71:                                               ; preds = %66
  %72 = getelementptr i8, ptr %69, i64 -1
  %73 = load i8, ptr %72, align 1
  %74 = add i8 %73, -58
  %75 = icmp ult i8 %74, -10
  br i1 %75, label %76, label %._crit_edge47.i25.preheader

76:                                               ; preds = %71, %66
  %.phi.trans.insert.i22 = getelementptr inbounds nuw i8, ptr %4, i64 %68
  %.pre.i23 = load i8, ptr %.phi.trans.insert.i22, align 1
  %77 = add i8 %.pre.i23, -58
  %78 = icmp ult i8 %77, -10
  %or.cond.i24 = select i1 %67, i1 true, i1 %78
  br i1 %or.cond.i24, label %._crit_edge.i32, label %._crit_edge47.i25.preheader

._crit_edge47.i25.preheader:                      ; preds = %76, %71
  br label %._crit_edge47.i25

._crit_edge47.i25:                                ; preds = %._crit_edge47.i25.preheader, %81
  %indvars.iv.i28 = phi i64 [ %82, %81 ], [ %.lcssa4256, %._crit_edge47.i25.preheader ]
  %79 = trunc nuw i64 %indvars.iv.i28 to i32
  %80 = icmp sgt i32 %79, 0
  br i1 %80, label %81, label %87

81:                                               ; preds = %._crit_edge47.i25
  %82 = add nsw i64 %indvars.iv.i28, -1
  %83 = getelementptr inbounds nuw i8, ptr %3, i64 %82
  %84 = load i8, ptr %83, align 1
  %85 = add i8 %84, -58
  %86 = icmp ult i8 %85, -10
  br i1 %86, label %87, label %._crit_edge47.i25, !llvm.loop !26

87:                                               ; preds = %81, %._crit_edge47.i25
  %.033.in.lcssa.i29 = phi i64 [ %indvars.iv.i28, %81 ], [ 0, %._crit_edge47.i25 ]
  %88 = getelementptr inbounds nuw i8, ptr %3, i64 %.033.in.lcssa.i29
  %89 = tail call i32 @atoi(ptr noundef nonnull readonly %88) #27
  %90 = getelementptr inbounds nuw i8, ptr %4, i64 %.033.in.lcssa.i29
  %91 = tail call i32 @atoi(ptr noundef readonly %90) #27
  %92 = icmp slt i32 %89, %91
  br i1 %92, label %Cba_StrCmpInt.exit, label %93

93:                                               ; preds = %87
  %94 = icmp sgt i32 %89, %91
  %..i30 = zext i1 %94 to i32
  br label %Cba_StrCmpInt.exit

._crit_edge.i32:                                  ; preds = %76, %.critedge.thread
  %95 = phi i8 [ %61, %.critedge.thread ], [ %70, %76 ]
  %96 = phi i8 [ %63, %.critedge.thread ], [ %.pre.i23, %76 ]
  %97 = icmp slt i8 %95, %96
  br i1 %97, label %Cba_StrCmpInt.exit, label %98

98:                                               ; preds = %._crit_edge.i32
  %99 = icmp sgt i8 %95, %96
  %.44.i33 = zext i1 %99 to i32
  br label %Cba_StrCmpInt.exit

Cba_StrCmpInt.exit:                               ; preds = %98, %._crit_edge.i32, %93, %87, %48, %._crit_edge.i, %44, %38
  %.017 = phi i32 [ -1, %38 ], [ %..i, %44 ], [ -1, %._crit_edge.i ], [ %.44.i, %48 ], [ -1, %87 ], [ %..i30, %93 ], [ -1, %._crit_edge.i32 ], [ %.44.i33, %98 ]
  ret i32 %.017
}